target datalayout = "e-m:e-p270:32:32-p271:32:32-p272:64:64-i64:64-i128:128-f80:128-n8:16:32:64-S128"
target triple = "x86_64-pc-linux-gnu"

%"class.duckdb_mbedtls::MbedTlsWrapper::AESGCMStateMBEDTLS" = type { %"class.duckdb::EncryptionState", i8, ptr }
%"class.duckdb::EncryptionState" = type { ptr }

; Function Attrs: mustprogress uwtable
define hidden void @_ZN14duckdb_mbedtls14MbedTlsWrapper18AESGCMStateMBEDTLSC2Ev(ptr noundef nonnull align 8 dereferenceable(24) %0) unnamed_addr #0 align 2 personality ptr @__gxx_personality_v0 {
  %2 = alloca ptr, align 8
  %3 = alloca ptr, align 8
  %4 = alloca i32, align 4
  %5 = alloca ptr, align 8
  store ptr %0, ptr %2, align 8, !tbaa !38
  %6 = load ptr, ptr %2, align 8
  call void @_ZN6duckdb15EncryptionStateC2Ev(ptr noundef nonnull align 8 dereferenceable(8) %6)
  store ptr getelementptr inbounds inrange(-16, 64) ({ [10 x ptr] }, ptr @_ZTVN14duckdb_mbedtls14MbedTlsWrapper18AESGCMStateMBEDTLSE, i32 0, i32 0, i32 2), ptr %6, align 8, !tbaa !40
  %7 = getelementptr inbounds nuw %"class.duckdb_mbedtls::MbedTlsWrapper::AESGCMStateMBEDTLS", ptr %6, i32 0, i32 1
  store i8 0, ptr %7, align 8, !tbaa !42
  %8 = getelementptr inbounds nuw %"class.duckdb_mbedtls::MbedTlsWrapper::AESGCMStateMBEDTLS", ptr %6, i32 0, i32 2
  %9 = invoke noalias noundef nonnull ptr @_Znwm(i64 noundef 400) #16
          to label %10 unwind label %15

10:                                               ; preds = %1
  call void @llvm.memset.p0.i64(ptr align 16 %9, i8 0, i64 400, i1 false)
  store ptr %9, ptr %8, align 8, !tbaa !45
  call void @llvm.lifetime.start.p0(i64 8, ptr %5) #13
  %11 = getelementptr inbounds nuw %"class.duckdb_mbedtls::MbedTlsWrapper::AESGCMStateMBEDTLS", ptr %6, i32 0, i32 2
  %12 = load ptr, ptr %11, align 8, !tbaa !45
  store ptr %12, ptr %5, align 8, !tbaa !46
  %13 = load ptr, ptr %5, align 8, !tbaa !46
  invoke void @mbedtls_gcm_init(ptr noundef %13)
          to label %14 unwind label %19

14:                                               ; preds = %10
  call void @llvm.lifetime.end.p0(i64 8, ptr %5) #13
  ret void

15:                                               ; preds = %1
  %16 = landingpad { ptr, i32 }
          cleanup
  %17 = extractvalue { ptr, i32 } %16, 0
  store ptr %17, ptr %3, align 8
  %18 = extractvalue { ptr, i32 } %16, 1
  store i32 %18, ptr %4, align 4
  br label %23

19:                                               ; preds = %10
  %20 = landingpad { ptr, i32 }
          cleanup
  %21 = extractvalue { ptr, i32 } %20, 0
  store ptr %21, ptr %3, align 8
  %22 = extractvalue { ptr, i32 } %20, 1
  store i32 %22, ptr %4, align 4
  call void @llvm.lifetime.end.p0(i64 8, ptr %5) #13
  br label %23

23:                                               ; preds = %19, %15
  call void @_ZN6duckdb15EncryptionStateD2Ev(ptr noundef nonnull align 8 dereferenceable(8) %6) #13
  br label %24

24:                                               ; preds = %23
  %25 = load ptr, ptr %3, align 8
  %26 = load i32, ptr %4, align 4
  %27 = insertvalue { ptr, i32 } poison, ptr %25, 0
  %28 = insertvalue { ptr, i32 } %27, i32 %26, 1
  resume { ptr, i32 } %28
}