; Function Attrs: mustprogress uwtable
define hidden void @_ZN14duckdb_mbedtls14MbedTlsWrapper18AESGCMStateMBEDTLSC2Ev(ptr noundef nonnull align 8 dereferenceable(24) %0) unnamed_addr #0 align 2 personality ptr @__gxx_personality_v0 {
  tail call void @_ZN6duckdb15EncryptionStateC2Ev(ptr noundef nonnull align 8 dereferenceable(8) %0)
  store ptr getelementptr inbounds nuw inrange(-16, 64) (i8, ptr @_ZTVN14duckdb_mbedtls14MbedTlsWrapper18AESGCMStateMBEDTLSE, i64 16), ptr %0, align 8, !tbaa !22
  %2 = getelementptr inbounds nuw i8, ptr %0, i64 8
  store i8 0, ptr %2, align 8, !tbaa !24
  %3 = invoke noalias noundef nonnull dereferenceable(400) ptr @_Znwm(i64 noundef 400) #22
          to label %4 unwind label %7

4:                                                ; preds = %1
  %5 = getelementptr inbounds nuw i8, ptr %0, i64 16
  tail call void @llvm.memset.p0.i64(ptr noundef nonnull align 16 dereferenceable(400) %3, i8 0, i64 400, i1 false)
  store ptr %3, ptr %5, align 8, !tbaa !28
  invoke void @mbedtls_gcm_init(ptr noundef nonnull %3)
          to label %6 unwind label %9

6:                                                ; preds = %4
  ret void

7:                                                ; preds = %1
  %8 = landingpad { ptr, i32 }
          cleanup
  br label %11

9:                                                ; preds = %4
  %10 = landingpad { ptr, i32 }
          cleanup
  br label %11

11:                                               ; preds = %9, %7
  %.pn = phi { ptr, i32 } [ %10, %9 ], [ %8, %7 ]
  tail call void @_ZN6duckdb15EncryptionStateD2Ev(ptr noundef nonnull align 8 dereferenceable(8) %0) #19
  resume { ptr, i32 } %.pn
}